***********************************************************************
*
*	CODE GENERATION LISTING FOR: DNS
*	COMPILER VERSION: 6.0.0.52
*
***********************************************************************

**************************************************
	CODE GENERATOR SUBROUTINES
**************************************************

$$MOD:
A1904AE0  FB90 F3F1		sdiv r3, r0, r1
A1904AE4  4359     		mul r1, r1, r3
A1904AE6  EBC1 0000		rsb r0, r1, r0
A1904AEA  4770     		bx lr

$$MOD_U:
A1904AEC  FBB0 F3F1		udiv r3, r0, r1
A1904AF0  4359     		mul r1, r1, r3
A1904AF2  EBC1 0000		rsb r0, r1, r0
A1904AF6  4770     		bx lr

**************************************************
	List program: Pr_Boot
**************************************************

PROGRAM Pr_Boot

END_PROGRAM

A1904B00  B082     		sub sp, sp, #8
A1904B02  F8CD E000		str lr, [sp]
A1904B06  E92D 0FF0		stmdb sp!, { r4, r5, r6, r7, r8, r9, r10, r11 }

#0		{SRC:Pr_Boot}
#1		(*$WAITSWITCH$*)
#2		
#3			(* iCfgPidvisRez1:= ep_iCfgPodves1; *)
#4			MOVE		ep_iCfgPodves1,iCfgPidvisRez1	{LNXT:1|2|-1}
(*) UDINT
A1904B0A  F8DF 70D0		ldr r7, [pc, #+208] ; 0xA00017F0
A1904B0E  F9B7 0000		ldrsh r0, [r7]
A1904B12  F8DF 7100		ldr r7, [pc, #+256] ; 0xA1A00016
A1904B16  8038     		strh r0, [r7]

#5		
#6			(* iCfgPidvisRez2:= ep_iCfgPodves2; *)
#7			MOVE		ep_iCfgPodves2,iCfgPidvisRez2	{LNXT:2|3|-1}
(*) INT
A1904B18  F8DF 70C4		ldr r7, [pc, #+196] ; 0xA00017F2
A1904B1C  F9B7 0000		ldrsh r0, [r7]
A1904B20  F8DF 70F8		ldr r7, [pc, #+248] ; 0xA1A0001C
A1904B24  8038     		strh r0, [r7]

#8		
#9			(* iCfgPidvisRez3:= ep_iCfgPodves3; *)
#10			MOVE		ep_iCfgPodves3,iCfgPidvisRez3	{LNXT:3|4|-1}
(*) INT
A1904B26  F8DF 70CC		ldr r7, [pc, #+204] ; 0xA0001804
A1904B2A  F9B7 0000		ldrsh r0, [r7]
A1904B2E  F8DF 70F4		ldr r7, [pc, #+244] ; 0xA1A00022
A1904B32  8038     		strh r0, [r7]

#11		
#12			(* iCfgPidvisRez4:= ep_iCfgPodves4; *)
#13			MOVE		ep_iCfgPodves4,iCfgPidvisRez4	{LNXT:4|5|-1}
(*) INT
A1904B34  F8DF 70C0		ldr r7, [pc, #+192] ; 0xA0001806
A1904B38  F9B7 0000		ldrsh r0, [r7]
A1904B3C  F8DF 70EC		ldr r7, [pc, #+236] ; 0xA1A00028
A1904B40  8038     		strh r0, [r7]

#14		
#15			(* iCfgPidvisRez5:= ep_iCfgPodves5; *)
#16			MOVE		ep_iCfgPodves5,iCfgPidvisRez5	{LNXT:5|6|-1}
(*) INT
A1904B42  F8DF 70B8		ldr r7, [pc, #+184] ; 0xA0001808
A1904B46  F9B7 0000		ldrsh r0, [r7]
A1904B4A  F8DF 70E8		ldr r7, [pc, #+232] ; 0xA1A0002E
A1904B4E  8038     		strh r0, [r7]

#17		
#18			(* iCfgPidvisRez6:= ep_iCfgPodves6; *)
#19			MOVE		ep_iCfgPodves6,iCfgPidvisRez6	{LNXT:6|9|-1}
(*) INT
A1904B50  F8DF 70AC		ldr r7, [pc, #+172] ; 0xA000180A
A1904B54  F9B7 0000		ldrsh r0, [r7]
A1904B58  F8DF 70E0		ldr r7, [pc, #+224] ; 0xA1A00034
A1904B5C  8038     		strh r0, [r7]

#20		
#21			(* i_Area_Tank1 := ep_iAreaTank1; *)
#22			MOVE		ep_iAreaTank1,i_Area_Tank1	{LNXT:9|10|-1}
(*) INT
A1904B5E  F8DF 7084		ldr r7, [pc, #+132] ; 0xA00017FC
A1904B62  F9B7 0000		ldrsh r0, [r7]
A1904B66  F8DF 70B0		ldr r7, [pc, #+176] ; 0xA1A00018
A1904B6A  8038     		strh r0, [r7]

#23		
#24			(* i_Area_Tank2 := ep_iAreaTank2; *)
#25			MOVE		ep_iAreaTank2,i_Area_Tank2	{LNXT:10|11|-1}
(*) INT
A1904B6C  F8DF 7078		ldr r7, [pc, #+120] ; 0xA00017FE
A1904B70  F9B7 0000		ldrsh r0, [r7]
A1904B74  F8DF 70A8		ldr r7, [pc, #+168] ; 0xA1A0001E
A1904B78  8038     		strh r0, [r7]

#26		
#27			(* i_Area_Tank3 := ep_iAreaTank3; *)
#28			MOVE		ep_iAreaTank3,i_Area_Tank3	{LNXT:11|12|-1}
(*) INT
A1904B7A  F8DF 7088		ldr r7, [pc, #+136] ; 0xA000180C
A1904B7E  F9B7 0000		ldrsh r0, [r7]
A1904B82  F8DF 70A4		ldr r7, [pc, #+164] ; 0xA1A00024
A1904B86  8038     		strh r0, [r7]

#29		
#30			(* i_Area_Tank4 := ep_iAreaTank4; *)
#31			MOVE		ep_iAreaTank4,i_Area_Tank4	{LNXT:12|13|-1}
(*) INT
A1904B88  F8DF 707C		ldr r7, [pc, #+124] ; 0xA000180E
A1904B8C  F9B7 0000		ldrsh r0, [r7]
A1904B90  F8DF 709C		ldr r7, [pc, #+156] ; 0xA1A0002A
A1904B94  8038     		strh r0, [r7]

#32		
#33			(* i_Area_Tank5 := ep_iAreaTank5; *)
#34			MOVE		ep_iAreaTank5,i_Area_Tank5	{LNXT:13|14|-1}
(*) INT
A1904B96  F8DF 7074		ldr r7, [pc, #+116] ; 0xA0001810
A1904B9A  F9B7 0000		ldrsh r0, [r7]
A1904B9E  F8DF 7098		ldr r7, [pc, #+152] ; 0xA1A00030
A1904BA2  8038     		strh r0, [r7]

#35		
#36			(* i_Area_Tank6 := ep_iAreaTank6; *)
#37			MOVE		ep_iAreaTank6,i_Area_Tank6	{LNXT:14|19|-1}
(*) INT
A1904BA4  F8DF 7068		ldr r7, [pc, #+104] ; 0xA0001812
A1904BA8  F9B7 0000		ldrsh r0, [r7]
A1904BAC  F8DF 7090		ldr r7, [pc, #+144] ; 0xA1A00036
A1904BB0  8038     		strh r0, [r7]

#38		
#39			(* iDay_begin:=ep_iDay_begin; *)
#40			MOVE		ep_iDay_begin,iDay_begin	{LNXT:19|20|-1}
(*) INT
A1904BB2  F8DF 7038		ldr r7, [pc, #+56] ; 0xA0001800
A1904BB6  F9B7 0000		ldrsh r0, [r7]
A1904BBA  F8DF 708C		ldr r7, [pc, #+140] ; 0xA1A00048
A1904BBE  8038     		strh r0, [r7]

#41		
#42			(* iDay_end:= ep_iDay_end; *)
#43			MOVE		ep_iDay_end,iDay_end	{LNXT:20|1|-1}
(*) INT
A1904BC0  F8DF 702C		ldr r7, [pc, #+44] ; 0xA0001802
A1904BC4  F9B7 0000		ldrsh r0, [r7]
A1904BC8  F8DF 7078		ldr r7, [pc, #+120] ; 0xA1A00046
A1904BCC  8038     		strh r0, [r7]

A1904BCE  E8BD 0FF0		ldmia sp!, { r4, r5, r6, r7, r8, r9, r10, r11 }
A1904BD2  F8DD E000		ldr lr, [sp]
A1904BD6  B002     		add sp, sp, #8

A1904BD8  4770     		bx lr

A1904BDC  FFFFFFFF		; 0xA00017F0
A1904BE0  FFFFFFFF		; 0xA00017F2
A1904BE4  FFFFFFFF		; 0xA00017FC
A1904BE8  FFFFFFFF		; 0xA00017FE
A1904BEC  FFFFFFFF		; 0xA0001800
A1904BF0  FFFFFFFF		; 0xA0001802
A1904BF4  FFFFFFFF		; 0xA0001804
A1904BF8  FFFFFFFF		; 0xA0001806
A1904BFC  FFFFFFFF		; 0xA0001808
A1904C00  FFFFFFFF		; 0xA000180A
A1904C04  FFFFFFFF		; 0xA000180C
A1904C08  FFFFFFFF		; 0xA000180E
A1904C0C  FFFFFFFF		; 0xA0001810
A1904C10  FFFFFFFF		; 0xA0001812
A1904C14  A1A00016		; 0xA1A00016
A1904C18  A1A00018		; 0xA1A00018
A1904C1C  A1A0001C		; 0xA1A0001C
A1904C20  A1A0001E		; 0xA1A0001E
A1904C24  A1A00022		; 0xA1A00022
A1904C28  A1A00024		; 0xA1A00024
A1904C2C  A1A00028		; 0xA1A00028
A1904C30  A1A0002A		; 0xA1A0002A
A1904C34  A1A0002E		; 0xA1A0002E
A1904C38  A1A00030		; 0xA1A00030
A1904C3C  A1A00034		; 0xA1A00034
A1904C40  A1A00036		; 0xA1A00036
A1904C44  A1A00046		; 0xA1A00046
A1904C48  A1A00048		; 0xA1A00048

END_PROGRAM


**************************************************
	Target variable image generation
**************************************************


*** INPUT:
A1904C4C  4770     		bx lr


*** OUTPUT:
A1904C4E  4770     		bx lr



**************************************************
	Task Boot init code
**************************************************

A1904C50  B082     		sub sp, sp, #8
A1904C52  F8CD E000		str lr, [sp]
A1904C56  E92D 0FF0		stmdb sp!, { r4, r5, r6, r7, r8, r9, r10, r11 }

A1904C5A  E8BD 0FF0		ldmia sp!, { r4, r5, r6, r7, r8, r9, r10, r11 }
A1904C5E  F8DD E000		ldr lr, [sp]
A1904C62  B002     		add sp, sp, #8

A1904C64  4770     		bx lr

**************************************************
	List program: ParCheck
**************************************************

PROGRAM ParCheck

END_PROGRAM

A1904C70  B082     		sub sp, sp, #8
A1904C72  F8CD E000		str lr, [sp]
A1904C76  E92D 0FF0		stmdb sp!, { r4, r5, r6, r7, r8, r9, r10, r11 }

#0		{SRC:ParCheck}
#1		(*$WAITSWITCH$*)
#2		
#3		
#4			(* IF Par_POLI AND 16#fc00) <> 2048 *)
#5			LD		Par_POLI	{LNXT:2|-1|-1}
(*) UNDEF
A1904C7A  F8DF 7034		ldr r7, [pc, #+52] ; 0x10000182
A1904C7E  8838     		ldrh r0, [r7]

#6			AND		16#fc00	{LNXT:2|-1|-1}
(*) UINT
A1904C80  F44F 477C		mov r7, #64512 ; 64512
A1904C84  4038     		and r0, r0, r7

#7			NE		2048	{LNXT:2|-1|-1}
(*) UINT
A1904C86  F44F 6700		mov r7, #2048 ; 2048
A1904C8A  42B8     		cmp r0, r7
A1904C8C  BF08 2000		eqmov r0, #0
A1904C90  BF18 2001		nemov r0, #1

#8			JMPCN	$label0	{LNXT:2|3|2}
(-) BOOL
A1904C94  2800     		cmp r0, #0
A1904C96  D005     		beq #10 ; 0xA1904CA4


#9		
#10			(* THEN *)
#11		
#12				(* WHILE TRUE *)
#13		$label1:
#14				LD		TRUE	{LNXT:3|-1|-1}
(-) UNDEF
A1904C9A  2001     		mov r0, #1 ; 1

#15				JMPCN		$label2	{LNXT:3|2|2}
(-) BOOL
A1904C9C  2800     		cmp r0, #0
A1904C9E  D001     		beq #2 ; 0xA1904CA4


#16		
#17				(* DO *)
#18					JMP		$label1	{LNXT:3|2|2}
(-) BOOL
A1904CA2  E7FA     		b #-12 ; 0xA1904C9A

A1904CA4  E8BD 0FF0		ldmia sp!, { r4, r5, r6, r7, r8, r9, r10, r11 }
A1904CA8  F8DD E000		ldr lr, [sp]
A1904CAC  B002     		add sp, sp, #8

A1904CAE  4770     		bx lr

A1904CB0  FFFFFFFF		; 0x10000182

END_PROGRAM


**************************************************
	Target variable image generation
**************************************************


*** INPUT:
A1904CB4  4770     		bx lr


*** OUTPUT:
A1904CB6  4770     		bx lr



**************************************************
	Task Init init code
**************************************************

A1904CB8  B082     		sub sp, sp, #8
A1904CBA  F8CD E000		str lr, [sp]
A1904CBE  E92D 0FF0		stmdb sp!, { r4, r5, r6, r7, r8, r9, r10, r11 }

A1904CC2  E8BD 0FF0		ldmia sp!, { r4, r5, r6, r7, r8, r9, r10, r11 }
A1904CC6  F8DD E000		ldr lr, [sp]
A1904CCA  B002     		add sp, sp, #8

A1904CCC  4770     		bx lr

**************************************************
	List program: InitParDB
**************************************************

PROGRAM InitParDB

        VAR
warningsKiller : USINT;
dummyCrc32 : UDINT;
	END_VAR

END_PROGRAM

A1904CE0  B082     		sub sp, sp, #8
A1904CE2  F8CD E000		str lr, [sp]
A1904CE6  E92D 0FF0		stmdb sp!, { r4, r5, r6, r7, r8, r9, r10, r11 }

#0		{SRC:InitParDB}
#1		(*$WAITSWITCH$*)
#2		
#3			(* dummyCrc32 := 428776436; *)
#4			MOVE		428776436,dummyCrc32	{LNXT:3|5|-1}
(*) UDINT
A1904CEA  F8DF 7044		ldr r7, [pc, #+68] ; 0x198E9BF4
A1904CEE  4638     		mov r0, r7
A1904CF0  F8DF 7034		ldr r7, [pc, #+52] ; 0xA1A00010
A1904CF4  6038     		str r0, [r7]

#5		
#6			(* warningsKiller := sysDBase_SetExtTable( ADR( $$ParDB ), $$ParDBLength ); *)
#7			ADR		$$ParDB	{LNXT:5|3|-1}
(*) UDINT
A1904CF6  F8DF 0028		ldr r0, [pc, #+40] ; 0xA19000E0

#8			sysDBase_SetExtTable		$$ParDBLength	{LNXT:5|3|-1}
(*) @USINT
A1904CFA  4607     		mov r7, r0
A1904CFC  4638     		mov r0, r7
A1904CFE  2746     		mov r7, #70 ; 70
A1904D00  4639     		mov r1, r7
A1904D02  F8DF 4028		ldr r4, [pc, #+40] ; 0x139A5
A1904D06  F044 0401		orr r4, r4, #1
A1904D0A  47A0     		blx r4

#9			ST		warningsKiller	{LNXT:5|3|-1}
(*) USINT
A1904D0C  F8DF 7014		ldr r7, [pc, #+20] ; 0xA1A0000F
A1904D10  7038     		strb r0, [r7]

A1904D12  E8BD 0FF0		ldmia sp!, { r4, r5, r6, r7, r8, r9, r10, r11 }
A1904D16  F8DD E000		ldr lr, [sp]
A1904D1A  B002     		add sp, sp, #8

A1904D1C  4770     		bx lr

A1904D20  A19000E0		; 0xA19000E0
A1904D24  A1A0000F		; 0xA1A0000F
A1904D28  A1A00010		; 0xA1A00010
A1904D2C  FFFFFFFF		; 0x000139A5
A1904D30  198E9BF4		; 0x198E9BF4

END_PROGRAM


**************************************************
	Target variable image generation
**************************************************


*** INPUT:
A1904D34  4770     		bx lr


*** OUTPUT:
A1904D36  4770     		bx lr



**************************************************
	Task Serv init code
**************************************************

A1904D38  B082     		sub sp, sp, #8
A1904D3A  F8CD E000		str lr, [sp]
A1904D3E  E92D 0FF0		stmdb sp!, { r4, r5, r6, r7, r8, r9, r10, r11 }

A1904D42  E8BD 0FF0		ldmia sp!, { r4, r5, r6, r7, r8, r9, r10, r11 }
A1904D46  F8DD E000		ldr lr, [sp]
A1904D4A  B002     		add sp, sp, #8

A1904D4C  4770     		bx lr

**************************************************
	List program: Pres_Freq_Flow
**************************************************

PROGRAM Pres_Freq_Flow

        VAR
ton_start_up : TON;
	END_VAR

END_PROGRAM

A1904D60  B082     		sub sp, sp, #8
A1904D62  F8CD E000		str lr, [sp]
A1904D66  E92D 0FF0		stmdb sp!, { r4, r5, r6, r7, r8, r9, r10, r11 }

#0		{SRC:Pres_Freq_Flow}
#1		(*$WAITSWITCH$*)
#2		
#3			(* Tank1_lvl := to_int(to_real(i_abc_Tank1_lvl+iCfgPidvisRez1) * i_Area_Tank1/100); *)
#4			LD		i_abc_Tank1_lvl	{LNXT:2|3|-1}
(*) UNDEF
A1904D6A  F8DF 7470		ldr r7, [pc, #+1136] ; 0xA1A00014
A1904D6E  F9B7 0000		ldrsh r0, [r7]

#5			ADD		iCfgPidvisRez1	{LNXT:2|3|-1}
(*) INT
A1904D72  F8DF 746C		ldr r7, [pc, #+1132] ; 0xA1A00016
A1904D76  F9B7 7000		ldrsh r7, [r7]
A1904D7A  19C0     		add r0, r0, r7

#6			to_real	{LNXT:2|3|-1}
(*) INT
A1904D7C  F8DF 44B0		ldr r4, [pc, #+1200] ; 0x11203
A1904D80  F044 0401		orr r4, r4, #1
A1904D84  47A0     		blx r4

#7			MUL		i_Area_Tank1	{LNXT:2|3|-1}
(*) REAL
A1904D86  F8DF 745C		ldr r7, [pc, #+1116] ; 0xA1A00018
A1904D8A  F9B7 7000		ldrsh r7, [r7]
A1904D8E  B082     		sub sp, sp, #8
A1904D90  F8CD 0000		str r0, [sp]
A1904D94  4638     		mov r0, r7
A1904D96  F8DF 4498		ldr r4, [pc, #+1176] ; 0x11203
A1904D9A  F044 0401		orr r4, r4, #1
A1904D9E  47A0     		blx r4
A1904DA0  4607     		mov r7, r0
A1904DA2  F8DD 0000		ldr r0, [sp]
A1904DA6  B002     		add sp, sp, #8
A1904DA8  B082     		sub sp, sp, #8
A1904DAA  F8CD 1000		str r1, [sp]
A1904DAE  4639     		mov r1, r7
A1904DB0  F8DF 4484		ldr r4, [pc, #+1156] ; 0x11253
A1904DB4  F044 0401		orr r4, r4, #1
A1904DB8  47A0     		blx r4
A1904DBA  F8DD 1000		ldr r1, [sp]
A1904DBE  B002     		add sp, sp, #8

#8			DIV		100	{LNXT:2|3|-1}
(*) REAL
A1904DC0  2764     		mov r7, #100 ; 100
A1904DC2  B082     		sub sp, sp, #8
A1904DC4  F8CD 0000		str r0, [sp]
A1904DC8  4638     		mov r0, r7
A1904DCA  F8DF 4460		ldr r4, [pc, #+1120] ; 0x111F3
A1904DCE  F044 0401		orr r4, r4, #1
A1904DD2  47A0     		blx r4
A1904DD4  4607     		mov r7, r0
A1904DD6  F8DD 0000		ldr r0, [sp]
A1904DDA  B002     		add sp, sp, #8
A1904DDC  B082     		sub sp, sp, #8
A1904DDE  F8CD 1000		str r1, [sp]
A1904DE2  4639     		mov r1, r7
A1904DE4  F8DF 4454		ldr r4, [pc, #+1108] ; 0x11263
A1904DE8  F044 0401		orr r4, r4, #1
A1904DEC  47A0     		blx r4
A1904DEE  F8DD 1000		ldr r1, [sp]
A1904DF2  B002     		add sp, sp, #8

#9			to_int	{LNXT:2|3|-1}
(*) REAL
A1904DF4  F8DF 443C		ldr r4, [pc, #+1084] ; 0x11223
A1904DF8  F044 0401		orr r4, r4, #1
A1904DFC  47A0     		blx r4

#10			ST		Tank1_lvl	{LNXT:2|3|-1}
(*) INT
A1904DFE  F8DF 73B0		ldr r7, [pc, #+944] ; 0xA0003F00
A1904E02  8038     		strh r0, [r7]

#11		
#12			(* Tank2_lvl := to_int(to_real(i_abc_Tank2_lvl + iCfgPidvisRez2) * i_Area_Tank2/100); *)
#13			LD		i_abc_Tank2_lvl	{LNXT:3|4|-1}
(*) UNDEF
A1904E04  F8DF 73E0		ldr r7, [pc, #+992] ; 0xA1A0001A
A1904E08  F9B7 0000		ldrsh r0, [r7]

#14			ADD		iCfgPidvisRez2	{LNXT:3|4|-1}
(*) INT
A1904E0C  F8DF 73DC		ldr r7, [pc, #+988] ; 0xA1A0001C
A1904E10  F9B7 7000		ldrsh r7, [r7]
A1904E14  19C0     		add r0, r0, r7

#15			to_real	{LNXT:3|4|-1}
(*) INT
A1904E16  F8DF 4418		ldr r4, [pc, #+1048] ; 0x11203
A1904E1A  F044 0401		orr r4, r4, #1
A1904E1E  47A0     		blx r4

#16			MUL		i_Area_Tank2	{LNXT:3|4|-1}
(*) REAL
A1904E20  F8DF 73CC		ldr r7, [pc, #+972] ; 0xA1A0001E
A1904E24  F9B7 7000		ldrsh r7, [r7]
A1904E28  B082     		sub sp, sp, #8
A1904E2A  F8CD 0000		str r0, [sp]
A1904E2E  4638     		mov r0, r7
A1904E30  F8DF 43FC		ldr r4, [pc, #+1020] ; 0x11203
A1904E34  F044 0401		orr r4, r4, #1
A1904E38  47A0     		blx r4
A1904E3A  4607     		mov r7, r0
A1904E3C  F8DD 0000		ldr r0, [sp]
A1904E40  B002     		add sp, sp, #8
A1904E42  B082     		sub sp, sp, #8
A1904E44  F8CD 1000		str r1, [sp]
A1904E48  4639     		mov r1, r7
A1904E4A  F8DF 43EC		ldr r4, [pc, #+1004] ; 0x11253
A1904E4E  F044 0401		orr r4, r4, #1
A1904E52  47A0     		blx r4
A1904E54  F8DD 1000		ldr r1, [sp]
A1904E58  B002     		add sp, sp, #8

#17			DIV		100	{LNXT:3|4|-1}
(*) REAL
A1904E5A  2764     		mov r7, #100 ; 100
A1904E5C  B082     		sub sp, sp, #8
A1904E5E  F8CD 0000		str r0, [sp]
A1904E62  4638     		mov r0, r7
A1904E64  F8DF 43C4		ldr r4, [pc, #+964] ; 0x111F3
A1904E68  F044 0401		orr r4, r4, #1
A1904E6C  47A0     		blx r4
A1904E6E  4607     		mov r7, r0
A1904E70  F8DD 0000		ldr r0, [sp]
A1904E74  B002     		add sp, sp, #8
A1904E76  B082     		sub sp, sp, #8
A1904E78  F8CD 1000		str r1, [sp]
A1904E7C  4639     		mov r1, r7
A1904E7E  F8DF 43BC		ldr r4, [pc, #+956] ; 0x11263
A1904E82  F044 0401		orr r4, r4, #1
A1904E86  47A0     		blx r4
A1904E88  F8DD 1000		ldr r1, [sp]
A1904E8C  B002     		add sp, sp, #8

#18			to_int	{LNXT:3|4|-1}
(*) REAL
A1904E8E  F8DF 43A4		ldr r4, [pc, #+932] ; 0x11223
A1904E92  F044 0401		orr r4, r4, #1
A1904E96  47A0     		blx r4

#19			ST		Tank2_lvl	{LNXT:3|4|-1}
(*) INT
A1904E98  F8DF 7318		ldr r7, [pc, #+792] ; 0xA0003F02
A1904E9C  8038     		strh r0, [r7]

#20		
#21			(* Tank3_lvl := to_int(to_real(i_abc_Tank3_lvl + iCfgPidvisRez3) * i_Area_Tank3/100); *)
#22			LD		i_abc_Tank3_lvl	{LNXT:4|5|-1}
(*) UNDEF
A1904E9E  F8DF 7354		ldr r7, [pc, #+852] ; 0xA1A00020
A1904EA2  F9B7 0000		ldrsh r0, [r7]

#23			ADD		iCfgPidvisRez3	{LNXT:4|5|-1}
(*) INT
A1904EA6  F8DF 7350		ldr r7, [pc, #+848] ; 0xA1A00022
A1904EAA  F9B7 7000		ldrsh r7, [r7]
A1904EAE  19C0     		add r0, r0, r7

#24			to_real	{LNXT:4|5|-1}
(*) INT
A1904EB0  F8DF 437C		ldr r4, [pc, #+892] ; 0x11203
A1904EB4  F044 0401		orr r4, r4, #1
A1904EB8  47A0     		blx r4

#25			MUL		i_Area_Tank3	{LNXT:4|5|-1}
(*) REAL
A1904EBA  F8DF 7340		ldr r7, [pc, #+832] ; 0xA1A00024
A1904EBE  F9B7 7000		ldrsh r7, [r7]
A1904EC2  B082     		sub sp, sp, #8
A1904EC4  F8CD 0000		str r0, [sp]
A1904EC8  4638     		mov r0, r7
A1904ECA  F8DF 4364		ldr r4, [pc, #+868] ; 0x11203
A1904ECE  F044 0401		orr r4, r4, #1
A1904ED2  47A0     		blx r4
A1904ED4  4607     		mov r7, r0
A1904ED6  F8DD 0000		ldr r0, [sp]
A1904EDA  B002     		add sp, sp, #8
A1904EDC  B082     		sub sp, sp, #8
A1904EDE  F8CD 1000		str r1, [sp]
A1904EE2  4639     		mov r1, r7
A1904EE4  F8DF 4350		ldr r4, [pc, #+848] ; 0x11253
A1904EE8  F044 0401		orr r4, r4, #1
A1904EEC  47A0     		blx r4
A1904EEE  F8DD 1000		ldr r1, [sp]
A1904EF2  B002     		add sp, sp, #8

#26			DIV		100	{LNXT:4|5|-1}
(*) REAL
A1904EF4  2764     		mov r7, #100 ; 100
A1904EF6  B082     		sub sp, sp, #8
A1904EF8  F8CD 0000		str r0, [sp]
A1904EFC  4638     		mov r0, r7
A1904EFE  F8DF 432C		ldr r4, [pc, #+812] ; 0x111F3
A1904F02  F044 0401		orr r4, r4, #1
A1904F06  47A0     		blx r4
A1904F08  4607     		mov r7, r0
A1904F0A  F8DD 0000		ldr r0, [sp]
A1904F0E  B002     		add sp, sp, #8
A1904F10  B082     		sub sp, sp, #8
A1904F12  F8CD 1000		str r1, [sp]
A1904F16  4639     		mov r1, r7
A1904F18  F8DF 4320		ldr r4, [pc, #+800] ; 0x11263
A1904F1C  F044 0401		orr r4, r4, #1
A1904F20  47A0     		blx r4
A1904F22  F8DD 1000		ldr r1, [sp]
A1904F26  B002     		add sp, sp, #8

#27			to_int	{LNXT:4|5|-1}
(*) REAL
A1904F28  F8DF 4308		ldr r4, [pc, #+776] ; 0x11223
A1904F2C  F044 0401		orr r4, r4, #1
A1904F30  47A0     		blx r4

#28			ST		Tank3_lvl	{LNXT:4|5|-1}
(*) INT
A1904F32  F8DF 7294		ldr r7, [pc, #+660] ; 0xA0003F22
A1904F36  8038     		strh r0, [r7]

#29		
#30			(* Tank4_lvl := to_int(to_real(i_abc_Tank4_lvl + iCfgPidvisRez4) * i_Area_Tank4/100); *)
#31			LD		i_abc_Tank4_lvl	{LNXT:5|6|-1}
(*) UNDEF
A1904F38  F8DF 72C4		ldr r7, [pc, #+708] ; 0xA1A00026
A1904F3C  F9B7 0000		ldrsh r0, [r7]

#32			ADD		iCfgPidvisRez4	{LNXT:5|6|-1}
(*) INT
A1904F40  F8DF 72C0		ldr r7, [pc, #+704] ; 0xA1A00028
A1904F44  F9B7 7000		ldrsh r7, [r7]
A1904F48  19C0     		add r0, r0, r7

#33			to_real	{LNXT:5|6|-1}
(*) INT
A1904F4A  F8DF 42E4		ldr r4, [pc, #+740] ; 0x11203
A1904F4E  F044 0401		orr r4, r4, #1
A1904F52  47A0     		blx r4

#34			MUL		i_Area_Tank4	{LNXT:5|6|-1}
(*) REAL
A1904F54  F8DF 72B0		ldr r7, [pc, #+688] ; 0xA1A0002A
A1904F58  F9B7 7000		ldrsh r7, [r7]
A1904F5C  B082     		sub sp, sp, #8
A1904F5E  F8CD 0000		str r0, [sp]
A1904F62  4638     		mov r0, r7
A1904F64  F8DF 42C8		ldr r4, [pc, #+712] ; 0x11203
A1904F68  F044 0401		orr r4, r4, #1
A1904F6C  47A0     		blx r4
A1904F6E  4607     		mov r7, r0
A1904F70  F8DD 0000		ldr r0, [sp]
A1904F74  B002     		add sp, sp, #8
A1904F76  B082     		sub sp, sp, #8
A1904F78  F8CD 1000		str r1, [sp]
A1904F7C  4639     		mov r1, r7
A1904F7E  F8DF 42B8		ldr r4, [pc, #+696] ; 0x11253
A1904F82  F044 0401		orr r4, r4, #1
A1904F86  47A0     		blx r4
A1904F88  F8DD 1000		ldr r1, [sp]
A1904F8C  B002     		add sp, sp, #8

#35			DIV		100	{LNXT:5|6|-1}
(*) REAL
A1904F8E  2764     		mov r7, #100 ; 100
A1904F90  B082     		sub sp, sp, #8
A1904F92  F8CD 0000		str r0, [sp]
A1904F96  4638     		mov r0, r7
A1904F98  F8DF 4290		ldr r4, [pc, #+656] ; 0x111F3
A1904F9C  F044 0401		orr r4, r4, #1
A1904FA0  47A0     		blx r4
A1904FA2  4607     		mov r7, r0
A1904FA4  F8DD 0000		ldr r0, [sp]
A1904FA8  B002     		add sp, sp, #8
A1904FAA  B082     		sub sp, sp, #8
A1904FAC  F8CD 1000		str r1, [sp]
A1904FB0  4639     		mov r1, r7
A1904FB2  F8DF 4288		ldr r4, [pc, #+648] ; 0x11263
A1904FB6  F044 0401		orr r4, r4, #1
A1904FBA  47A0     		blx r4
A1904FBC  F8DD 1000		ldr r1, [sp]
A1904FC0  B002     		add sp, sp, #8

#36			to_int	{LNXT:5|6|-1}
(*) REAL
A1904FC2  F8DF 4270		ldr r4, [pc, #+624] ; 0x11223
A1904FC6  F044 0401		orr r4, r4, #1
A1904FCA  47A0     		blx r4

#37			ST		Tank4_lvl	{LNXT:5|6|-1}
(*) INT
A1904FCC  F8DF 71FC		ldr r7, [pc, #+508] ; 0xA0003F24
A1904FD0  8038     		strh r0, [r7]

#38		
#39			(* Tank5_lvl := to_int(to_real(i_abc_Tank5_lvl + iCfgPidvisRez5) * i_Area_Tank5/100); *)
#40			LD		i_abc_Tank5_lvl	{LNXT:6|7|-1}
(*) UNDEF
A1904FD2  F8DF 7238		ldr r7, [pc, #+568] ; 0xA1A0002C
A1904FD6  F9B7 0000		ldrsh r0, [r7]

#41			ADD		iCfgPidvisRez5	{LNXT:6|7|-1}
(*) INT
A1904FDA  F8DF 7234		ldr r7, [pc, #+564] ; 0xA1A0002E
A1904FDE  F9B7 7000		ldrsh r7, [r7]
A1904FE2  19C0     		add r0, r0, r7

#42			to_real	{LNXT:6|7|-1}
(*) INT
A1904FE4  F8DF 4248		ldr r4, [pc, #+584] ; 0x11203
A1904FE8  F044 0401		orr r4, r4, #1
A1904FEC  47A0     		blx r4

#43			MUL		i_Area_Tank5	{LNXT:6|7|-1}
(*) REAL
A1904FEE  F8DF 7224		ldr r7, [pc, #+548] ; 0xA1A00030
A1904FF2  F9B7 7000		ldrsh r7, [r7]
A1904FF6  B082     		sub sp, sp, #8
A1904FF8  F8CD 0000		str r0, [sp]
A1904FFC  4638     		mov r0, r7
A1904FFE  F8DF 4230		ldr r4, [pc, #+560] ; 0x11203
A1905002  F044 0401		orr r4, r4, #1
A1905006  47A0     		blx r4
A1905008  4607     		mov r7, r0
A190500A  F8DD 0000		ldr r0, [sp]
A190500E  B002     		add sp, sp, #8
A1905010  B082     		sub sp, sp, #8
A1905012  F8CD 1000		str r1, [sp]
A1905016  4639     		mov r1, r7
A1905018  F8DF 421C		ldr r4, [pc, #+540] ; 0x11253
A190501C  F044 0401		orr r4, r4, #1
A1905020  47A0     		blx r4
A1905022  F8DD 1000		ldr r1, [sp]
A1905026  B002     		add sp, sp, #8

#44			DIV		100	{LNXT:6|7|-1}
(*) REAL
A1905028  2764     		mov r7, #100 ; 100
A190502A  B082     		sub sp, sp, #8
A190502C  F8CD 0000		str r0, [sp]
A1905030  4638     		mov r0, r7
A1905032  F8DF 41F8		ldr r4, [pc, #+504] ; 0x111F3
A1905036  F044 0401		orr r4, r4, #1
A190503A  47A0     		blx r4
A190503C  4607     		mov r7, r0
A190503E  F8DD 0000		ldr r0, [sp]
A1905042  B002     		add sp, sp, #8
A1905044  B082     		sub sp, sp, #8
A1905046  F8CD 1000		str r1, [sp]
A190504A  4639     		mov r1, r7
A190504C  F8DF 41EC		ldr r4, [pc, #+492] ; 0x11263
A1905050  F044 0401		orr r4, r4, #1
A1905054  47A0     		blx r4
A1905056  F8DD 1000		ldr r1, [sp]
A190505A  B002     		add sp, sp, #8

#45			to_int	{LNXT:6|7|-1}
(*) REAL
A190505C  F8DF 41D4		ldr r4, [pc, #+468] ; 0x11223
A1905060  F044 0401		orr r4, r4, #1
A1905064  47A0     		blx r4

#46			ST		Tank5_lvl	{LNXT:6|7|-1}
(*) INT
A1905066  F8DF 7168		ldr r7, [pc, #+360] ; 0xA0003F26
A190506A  8038     		strh r0, [r7]

#47		
#48			(* Tank6_lvl := to_int(to_real(i_abc_Tank6_lvl + iCfgPidvisRez6) * i_Area_Tank6/100); *)
#49			LD		i_abc_Tank6_lvl	{LNXT:7|9|-1}
(*) UNDEF
A190506C  F8DF 71A8		ldr r7, [pc, #+424] ; 0xA1A00032
A1905070  F9B7 0000		ldrsh r0, [r7]

#50			ADD		iCfgPidvisRez6	{LNXT:7|9|-1}
(*) INT
A1905074  F8DF 71A4		ldr r7, [pc, #+420] ; 0xA1A00034
A1905078  F9B7 7000		ldrsh r7, [r7]
A190507C  19C0     		add r0, r0, r7

#51			to_real	{LNXT:7|9|-1}
(*) INT
A190507E  F8DF 41B0		ldr r4, [pc, #+432] ; 0x11203
A1905082  F044 0401		orr r4, r4, #1
A1905086  47A0     		blx r4

#52			MUL		i_Area_Tank6	{LNXT:7|9|-1}
(*) REAL
A1905088  F8DF 7194		ldr r7, [pc, #+404] ; 0xA1A00036
A190508C  F9B7 7000		ldrsh r7, [r7]
A1905090  B082     		sub sp, sp, #8
A1905092  F8CD 0000		str r0, [sp]
A1905096  4638     		mov r0, r7
A1905098  F8DF 4194		ldr r4, [pc, #+404] ; 0x11203
A190509C  F044 0401		orr r4, r4, #1
A19050A0  47A0     		blx r4
A19050A2  4607     		mov r7, r0
A19050A4  F8DD 0000		ldr r0, [sp]
A19050A8  B002     		add sp, sp, #8
A19050AA  B082     		sub sp, sp, #8
A19050AC  F8CD 1000		str r1, [sp]
A19050B0  4639     		mov r1, r7
A19050B2  F8DF 4184		ldr r4, [pc, #+388] ; 0x11253
A19050B6  F044 0401		orr r4, r4, #1
A19050BA  47A0     		blx r4
A19050BC  F8DD 1000		ldr r1, [sp]
A19050C0  B002     		add sp, sp, #8

#53			DIV		100	{LNXT:7|9|-1}
(*) REAL
A19050C2  2764     		mov r7, #100 ; 100
A19050C4  B082     		sub sp, sp, #8
A19050C6  F8CD 0000		str r0, [sp]
A19050CA  4638     		mov r0, r7
A19050CC  F8DF 415C		ldr r4, [pc, #+348] ; 0x111F3
A19050D0  F044 0401		orr r4, r4, #1
A19050D4  47A0     		blx r4
A19050D6  4607     		mov r7, r0
A19050D8  F8DD 0000		ldr r0, [sp]
A19050DC  B002     		add sp, sp, #8
A19050DE  B082     		sub sp, sp, #8
A19050E0  F8CD 1000		str r1, [sp]
A19050E4  4639     		mov r1, r7
A19050E6  F8DF 4154		ldr r4, [pc, #+340] ; 0x11263
A19050EA  F044 0401		orr r4, r4, #1
A19050EE  47A0     		blx r4
A19050F0  F8DD 1000		ldr r1, [sp]
A19050F4  B002     		add sp, sp, #8

#54			to_int	{LNXT:7|9|-1}
(*) REAL
A19050F6  F8DF 413C		ldr r4, [pc, #+316] ; 0x11223
A19050FA  F044 0401		orr r4, r4, #1
A19050FE  47A0     		blx r4

#55			ST		Tank6_lvl	{LNXT:7|9|-1}
(*) INT
A1905100  F8DF 70D0		ldr r7, [pc, #+208] ; 0xA0003F28
A1905104  8038     		strh r0, [r7]

#56		
#57			(* Out_Flow1 := to_int(to_real(i_abc_Flow1) * 0.15); *)
#58			LDP0		i_abc_Flow1	{LNXT:9|10|-1}
(-) INT
#59			to_real	{LNXT:9|10|-1}
(*) INT
A1905106  F8DF 711C		ldr r7, [pc, #+284] ; 0xA1A00038
A190510A  F9B7 0000		ldrsh r0, [r7]
A190510E  F8DF 4120		ldr r4, [pc, #+288] ; 0x11203
A1905112  F044 0401		orr r4, r4, #1
A1905116  47A0     		blx r4

#60			MUL		0.15	{LNXT:9|10|-1}
(*) REAL
A1905118  F8DF 70BC		ldr r7, [pc, #+188] ; 0xA1904AD0
A190511C  683F     		ldr r7, [r7]
A190511E  B082     		sub sp, sp, #8
A1905120  F8CD 1000		str r1, [sp]
A1905124  4639     		mov r1, r7
A1905126  F8DF 4110		ldr r4, [pc, #+272] ; 0x11253
A190512A  F044 0401		orr r4, r4, #1
A190512E  47A0     		blx r4
A1905130  F8DD 1000		ldr r1, [sp]
A1905134  B002     		add sp, sp, #8

#61			to_int	{LNXT:9|10|-1}
(*) REAL
A1905136  F8DF 40FC		ldr r4, [pc, #+252] ; 0x11223
A190513A  F044 0401		orr r4, r4, #1
A190513E  47A0     		blx r4

#62			ST		Out_Flow1	{LNXT:9|10|-1}
(*) INT
A1905140  F8DF 7074		ldr r7, [pc, #+116] ; 0xA0003F06
A1905144  8038     		strh r0, [r7]

#63		
#64			(* Out_Flow2 := to_int(to_real(i_abc_Flow2) * 0.15); *)
#65			LDP0		i_abc_Flow2	{LNXT:10|12|-1}
(-) INT
#66			to_real	{LNXT:10|12|-1}
(*) INT
A1905146  F8DF 70E0		ldr r7, [pc, #+224] ; 0xA1A0003A
A190514A  F9B7 0000		ldrsh r0, [r7]
A190514E  F8DF 40E0		ldr r4, [pc, #+224] ; 0x11203
A1905152  F044 0401		orr r4, r4, #1
A1905156  47A0     		blx r4

#67			MUL		0.15	{LNXT:10|12|-1}
(*) REAL
A1905158  F8DF 707C		ldr r7, [pc, #+124] ; 0xA1904AD0
A190515C  683F     		ldr r7, [r7]
A190515E  B082     		sub sp, sp, #8
A1905160  F8CD 1000		str r1, [sp]
A1905164  4639     		mov r1, r7
A1905166  F8DF 40D0		ldr r4, [pc, #+208] ; 0x11253
A190516A  F044 0401		orr r4, r4, #1
A190516E  47A0     		blx r4
A1905170  F8DD 1000		ldr r1, [sp]
A1905174  B002     		add sp, sp, #8

#68			to_int	{LNXT:10|12|-1}
(*) REAL
A1905176  F8DF 40BC		ldr r4, [pc, #+188] ; 0x11223
A190517A  F044 0401		orr r4, r4, #1
A190517E  47A0     		blx r4

#69			ST		Out_Flow2	{LNXT:10|12|-1}
(*) INT
A1905180  F8DF 7038		ldr r7, [pc, #+56] ; 0xA0003F08
A1905184  8038     		strh r0, [r7]

#70		
#71			(* Pressure_out1_cool := to_int(to_real(Pressure_out1-200))*2; *)
#72			LD		Pressure_out1	{LNXT:12|2|-1}
(*) UNDEF
A1905186  F8DF 7038		ldr r7, [pc, #+56] ; 0xA0003F0E
A190518A  F9B7 0000		ldrsh r0, [r7]

#73			SUB		200	{LNXT:12|2|-1}
(-) INT
A190518E  38C8     		sub r0, r0, #200

#74			to_real	{LNXT:12|2|-1}
(*) INT
A1905190  F8DF 409C		ldr r4, [pc, #+156] ; 0x11203
A1905194  F044 0401		orr r4, r4, #1
A1905198  47A0     		blx r4

#75			to_int	{LNXT:12|2|-1}
(*) REAL
A190519A  F8DF 4098		ldr r4, [pc, #+152] ; 0x11223
A190519E  F044 0401		orr r4, r4, #1
A19051A2  47A0     		blx r4

#76			MUL		2	{LNXT:12|2|-1}
(*) INT
A19051A4  2702     		mov r7, #2 ; 2
A19051A6  4378     		mul r0, r0, r7

#77			ST		Pressure_out1_cool	{LNXT:12|2|-1}
(*) INT
A19051A8  F8DF 7018		ldr r7, [pc, #+24] ; 0xA0003F1A
A19051AC  8038     		strh r0, [r7]

A19051AE  E047     		b #142

A19051B0  FFFFFFFF		; 0xA0003F00
A19051B4  FFFFFFFF		; 0xA0003F02
A19051B8  FFFFFFFF		; 0xA0003F06
A19051BC  FFFFFFFF		; 0xA0003F08
A19051C0  FFFFFFFF		; 0xA0003F0E
A19051C4  FFFFFFFF		; 0xA0003F1A
A19051C8  FFFFFFFF		; 0xA0003F22
A19051CC  FFFFFFFF		; 0xA0003F24
A19051D0  FFFFFFFF		; 0xA0003F26
A19051D4  FFFFFFFF		; 0xA0003F28
A19051D8  A1904AD0		; 0xA1904AD0
A19051DC  A1A00014		; 0xA1A00014
A19051E0  A1A00016		; 0xA1A00016
A19051E4  A1A00018		; 0xA1A00018
A19051E8  A1A0001A		; 0xA1A0001A
A19051EC  A1A0001C		; 0xA1A0001C
A19051F0  A1A0001E		; 0xA1A0001E
A19051F4  A1A00020		; 0xA1A00020
A19051F8  A1A00022		; 0xA1A00022
A19051FC  A1A00024		; 0xA1A00024
A1905200  A1A00026		; 0xA1A00026
A1905204  A1A00028		; 0xA1A00028
A1905208  A1A0002A		; 0xA1A0002A
A190520C  A1A0002C		; 0xA1A0002C
A1905210  A1A0002E		; 0xA1A0002E
A1905214  A1A00030		; 0xA1A00030
A1905218  A1A00032		; 0xA1A00032
A190521C  A1A00034		; 0xA1A00034
A1905220  A1A00036		; 0xA1A00036
A1905224  A1A00038		; 0xA1A00038
A1905228  A1A0003A		; 0xA1A0003A
A190522C  FFFFFFFF		; 0x000111F3
A1905230  FFFFFFFF		; 0x00011203
A1905234  FFFFFFFF		; 0x00011223
A1905238  FFFFFFFF		; 0x00011253
A190523C  FFFFFFFF		; 0x00011263

END_PROGRAM
**************************************************
	List program: Auto_sv
**************************************************

PROGRAM Auto_sv

        VAR
level : INT;
level_temp : INT;
Ton_lvl : TON;
Ton_lvl2 : TON;
Ton_lvl3 : TON;
Ton_lvl4 : TON;
Ton_lvl_temp : TON;
Ton_Lvl_stan : BOOL;
Time_System : DINT;
	END_VAR

END_PROGRAM

#0		{SRC:Auto_sv}
#1		(*$WAITSWITCH$*)
#2		
#3			(* level:=Tank1_lvl + Tank2_lvl+Tank3_lvl+Tank4_lvl+Tank5_lvl+Tank6_lvl; *)
#4			LD		Tank1_lvl	{LNXT:1|1|-1}
(*) UNDEF
A1905240  F8DF 7040		ldr r7, [pc, #+64] ; 0xA0003F00
A1905244  F9B7 0000		ldrsh r0, [r7]

#5			ADD		Tank2_lvl	{LNXT:1|1|-1}
(*) INT
A1905248  F8DF 703C		ldr r7, [pc, #+60] ; 0xA0003F02
A190524C  F9B7 7000		ldrsh r7, [r7]
A1905250  19C0     		add r0, r0, r7

#6			ADD		Tank3_lvl	{LNXT:1|1|-1}
(*) INT
A1905252  F8DF 7038		ldr r7, [pc, #+56] ; 0xA0003F22
A1905256  F9B7 7000		ldrsh r7, [r7]
A190525A  19C0     		add r0, r0, r7

#7			ADD		Tank4_lvl	{LNXT:1|1|-1}
(*) INT
A190525C  F8DF 7030		ldr r7, [pc, #+48] ; 0xA0003F24
A1905260  F9B7 7000		ldrsh r7, [r7]
A1905264  19C0     		add r0, r0, r7

#8			ADD		Tank5_lvl	{LNXT:1|1|-1}
(*) INT
A1905266  F8DF 702C		ldr r7, [pc, #+44] ; 0xA0003F26
A190526A  F9B7 7000		ldrsh r7, [r7]
A190526E  19C0     		add r0, r0, r7

#9			ADD		Tank6_lvl	{LNXT:1|1|-1}
(*) INT
A1905270  F8DF 7024		ldr r7, [pc, #+36] ; 0xA0003F28
A1905274  F9B7 7000		ldrsh r7, [r7]
A1905278  19C0     		add r0, r0, r7

#10			ST		level	{LNXT:1|1|-1}
(*) INT
A190527A  F8DF 7020		ldr r7, [pc, #+32] ; 0xA1A0000C
A190527E  8038     		strh r0, [r7]

A1905280  E00E     		b #28

A1905284  FFFFFFFF		; 0xA0003F00
A1905288  FFFFFFFF		; 0xA0003F02
A190528C  FFFFFFFF		; 0xA0003F22
A1905290  FFFFFFFF		; 0xA0003F24
A1905294  FFFFFFFF		; 0xA0003F26
A1905298  FFFFFFFF		; 0xA0003F28
A190529C  A1A0000C		; 0xA1A0000C

END_PROGRAM
**************************************************
	List program: pr_Alarms
**************************************************

PROGRAM pr_Alarms

END_PROGRAM

#0		{SRC:pr_Alarms}
#1		(*$WAITSWITCH$*)
#2		
#3			(* Alarms_Tank.0  := i_tank1_min; *)
#4			MOVE		i_tank1_min,Alarms_Tank.0	{LNXT:1|2|-1}
(*) UDINT
A19052A0  F8DF 7294		ldr r7, [pc, #+660] ; 0xA1A0000E
A19052A4  7838     		ldrb r0, [r7]
A19052A6  F8DF 7288		ldr r7, [pc, #+648] ; 0xA0003F0A
A19052AA  F8B7 8000		ldrh r8, [r7]
A19052AE  F360 0800		bfi r8, r0, #0, #1
A19052B2  F8A7 8000		strh r8, [r7]

#5		
#6			(* Alarms_Tank.1  := i_tank1_max; *)
#7			MOVE		i_tank1_max,Alarms_Tank.1	{LNXT:2|3|-1}
(*) BOOL
A19052B6  F8DF 7288		ldr r7, [pc, #+648] ; 0xA1A0003C
A19052BA  7838     		ldrb r0, [r7]
A19052BC  F8DF 7270		ldr r7, [pc, #+624] ; 0xA0003F0A
A19052C0  F8B7 8000		ldrh r8, [r7]
A19052C4  F360 0841		bfi r8, r0, #1, #1
A19052C8  F8A7 8000		strh r8, [r7]

#8		
#9			(* Alarms_Tank.2  := i_tank2_min; *)
#10			MOVE		i_tank2_min,Alarms_Tank.2	{LNXT:3|4|-1}
(*) BOOL
A19052CC  F8DF 7274		ldr r7, [pc, #+628] ; 0xA1A0003D
A19052D0  7838     		ldrb r0, [r7]
A19052D2  F8DF 725C		ldr r7, [pc, #+604] ; 0xA0003F0A
A19052D6  F8B7 8000		ldrh r8, [r7]
A19052DA  F360 0882		bfi r8, r0, #2, #1
A19052DE  F8A7 8000		strh r8, [r7]

#11		
#12			(* Alarms_Tank.3  := i_tank2_max; *)
#13			MOVE		i_tank2_max,Alarms_Tank.3	{LNXT:4|5|-1}
(*) BOOL
A19052E2  F8DF 7264		ldr r7, [pc, #+612] ; 0xA1A0003E
A19052E6  7838     		ldrb r0, [r7]
A19052E8  F8DF 7244		ldr r7, [pc, #+580] ; 0xA0003F0A
A19052EC  F8B7 8000		ldrh r8, [r7]
A19052F0  F360 08C3		bfi r8, r0, #3, #1
A19052F4  F8A7 8000		strh r8, [r7]

#14		
#15			(* Alarms_Tank.4  := i_tank3_min; *)
#16			MOVE		i_tank3_min,Alarms_Tank.4	{LNXT:5|6|-1}
(*) BOOL
A19052F8  F8DF 7250		ldr r7, [pc, #+592] ; 0xA1A0003F
A19052FC  7838     		ldrb r0, [r7]
A19052FE  F8DF 7230		ldr r7, [pc, #+560] ; 0xA0003F0A
A1905302  F8B7 8000		ldrh r8, [r7]
A1905306  F360 1804		bfi r8, r0, #4, #1
A190530A  F8A7 8000		strh r8, [r7]

#17		
#18			(* Alarms_Tank.5  := i_tank3_max; *)
#19			MOVE		i_tank3_max,Alarms_Tank.5	{LNXT:6|7|-1}
(*) BOOL
A190530E  F8DF 7240		ldr r7, [pc, #+576] ; 0xA1A00040
A1905312  7838     		ldrb r0, [r7]
A1905314  F8DF 7218		ldr r7, [pc, #+536] ; 0xA0003F0A
A1905318  F8B7 8000		ldrh r8, [r7]
A190531C  F360 1845		bfi r8, r0, #5, #1
A1905320  F8A7 8000		strh r8, [r7]

#20		
#21			(* Alarms_Tank.6  := i_tank4_min; *)
#22			MOVE		i_tank4_min,Alarms_Tank.6	{LNXT:7|8|-1}
(*) BOOL
A1905324  F8DF 722C		ldr r7, [pc, #+556] ; 0xA1A00041
A1905328  7838     		ldrb r0, [r7]
A190532A  F8DF 7204		ldr r7, [pc, #+516] ; 0xA0003F0A
A190532E  F8B7 8000		ldrh r8, [r7]
A1905332  F360 1886		bfi r8, r0, #6, #1
A1905336  F8A7 8000		strh r8, [r7]

#23		
#24			(* Alarms_Tank.7  := i_tank4_max; *)
#25			MOVE		i_tank4_max,Alarms_Tank.7	{LNXT:8|9|-1}
(*) BOOL
A190533A  F8DF 721C		ldr r7, [pc, #+540] ; 0xA1A00042
A190533E  7838     		ldrb r0, [r7]
A1905340  F8DF 71EC		ldr r7, [pc, #+492] ; 0xA0003F0A
A1905344  F8B7 8000		ldrh r8, [r7]
A1905348  F360 18C7		bfi r8, r0, #7, #1
A190534C  F8A7 8000		strh r8, [r7]

#26		
#27			(* Alarms_Tank.8  := i_tank5_min; *)
#28			MOVE		i_tank5_min,Alarms_Tank.8	{LNXT:9|10|-1}
(*) BOOL
A1905350  F8DF 7210		ldr r7, [pc, #+528] ; 0x10000CCB
A1905354  7838     		ldrb r0, [r7]
A1905356  F8DF 71D8		ldr r7, [pc, #+472] ; 0xA0003F0A
A190535A  F8B7 8000		ldrh r8, [r7]
A190535E  F360 2808		bfi r8, r0, #8, #1
A1905362  F8A7 8000		strh r8, [r7]

#29		
#30			(* Alarms_Tank.9  := i_tank5_max; *)
#31			MOVE		i_tank5_max,Alarms_Tank.9	{LNXT:10|11|-1}
(*) BOOL
A1905366  F8DF 7200		ldr r7, [pc, #+512] ; 0x10000CCC
A190536A  7838     		ldrb r0, [r7]
A190536C  F8DF 71C0		ldr r7, [pc, #+448] ; 0xA0003F0A
A1905370  F8B7 8000		ldrh r8, [r7]
A1905374  F360 2849		bfi r8, r0, #9, #1
A1905378  F8A7 8000		strh r8, [r7]

#32		
#33			(* Alarms_Tank.10 := i_tank6_min; *)
#34			MOVE		i_tank6_min,Alarms_Tank.10	{LNXT:11|12|-1}
(*) BOOL
A190537C  F8DF 71EC		ldr r7, [pc, #+492] ; 0x10000CCD
A1905380  7838     		ldrb r0, [r7]
A1905382  F8DF 71AC		ldr r7, [pc, #+428] ; 0xA0003F0A
A1905386  F8B7 8000		ldrh r8, [r7]
A190538A  F360 288A		bfi r8, r0, #10, #1
A190538E  F8A7 8000		strh r8, [r7]

#35		
#36			(* Alarms_Tank.11 := i_tank6_max; *)
#37			MOVE		i_tank6_max,Alarms_Tank.11	{LNXT:12|15|-1}
(*) BOOL
A1905392  F8DF 71DC		ldr r7, [pc, #+476] ; 0x10000CCE
A1905396  7838     		ldrb r0, [r7]
A1905398  F8DF 7194		ldr r7, [pc, #+404] ; 0xA0003F0A
A190539C  F8B7 8000		ldrh r8, [r7]
A19053A0  F360 28CB		bfi r8, r0, #11, #1
A19053A4  F8A7 8000		strh r8, [r7]

#38		
#39			(* Alarms_Filtr.0  := i_filtr1; *)
#40			MOVE		i_filtr1,Alarms_Filtr.0	{LNXT:15|16|-1}
(*) BOOL
A19053A8  F8DF 71C8		ldr r7, [pc, #+456] ; 0x10000CCF
A19053AC  7838     		ldrb r0, [r7]
A19053AE  F8DF 7184		ldr r7, [pc, #+388] ; 0xA0003F2A
A19053B2  F8B7 8000		ldrh r8, [r7]
A19053B6  F360 0800		bfi r8, r0, #0, #1
A19053BA  F8A7 8000		strh r8, [r7]

#41		
#42			(* Alarms_Filtr.1  := i_filtr2; *)
#43			MOVE		i_filtr2,Alarms_Filtr.1	{LNXT:16|17|-1}
(*) BOOL
A19053BE  F8DF 71B8		ldr r7, [pc, #+440] ; 0x10000CD0
A19053C2  7838     		ldrb r0, [r7]
A19053C4  F8DF 716C		ldr r7, [pc, #+364] ; 0xA0003F2A
A19053C8  F8B7 8000		ldrh r8, [r7]
A19053CC  F360 0841		bfi r8, r0, #1, #1
A19053D0  F8A7 8000		strh r8, [r7]

#44		
#45			(* Alarms_Filtr.2  := i_filtr3; *)
#46			MOVE		i_filtr3,Alarms_Filtr.2	{LNXT:17|18|-1}
(*) BOOL
A19053D4  F8DF 71A4		ldr r7, [pc, #+420] ; 0x10000CD1
A19053D8  7838     		ldrb r0, [r7]
A19053DA  F8DF 7158		ldr r7, [pc, #+344] ; 0xA0003F2A
A19053DE  F8B7 8000		ldrh r8, [r7]
A19053E2  F360 0882		bfi r8, r0, #2, #1
A19053E6  F8A7 8000		strh r8, [r7]

#47		
#48			(* Alarms_Filtr.3  := i_filtr4; *)
#49			MOVE		i_filtr4,Alarms_Filtr.3	{LNXT:18|19|-1}
(*) BOOL
A19053EA  F8DF 7194		ldr r7, [pc, #+404] ; 0x10000CD2
A19053EE  7838     		ldrb r0, [r7]
A19053F0  F8DF 7140		ldr r7, [pc, #+320] ; 0xA0003F2A
A19053F4  F8B7 8000		ldrh r8, [r7]
A19053F8  F360 08C3		bfi r8, r0, #3, #1
A19053FC  F8A7 8000		strh r8, [r7]

#50		
#51			(* Alarms_Filtr.4  := i_filtr5; *)
#52			MOVE		i_filtr5,Alarms_Filtr.4	{LNXT:19|20|-1}
(*) BOOL
A1905400  F8DF 7180		ldr r7, [pc, #+384] ; 0x10000CD3
A1905404  7838     		ldrb r0, [r7]
A1905406  F8DF 712C		ldr r7, [pc, #+300] ; 0xA0003F2A
A190540A  F8B7 8000		ldrh r8, [r7]
A190540E  F360 1804		bfi r8, r0, #4, #1
A1905412  F8A7 8000		strh r8, [r7]

#53		
#54			(* Alarms_Filtr.5  := i_filtr6; *)
#55			MOVE		i_filtr6,Alarms_Filtr.5	{LNXT:20|21|-1}
(*) BOOL
A1905416  F8DF 7170		ldr r7, [pc, #+368] ; 0x10000CD4
A190541A  7838     		ldrb r0, [r7]
A190541C  F8DF 7114		ldr r7, [pc, #+276] ; 0xA0003F2A
A1905420  F8B7 8000		ldrh r8, [r7]
A1905424  F360 1845		bfi r8, r0, #5, #1
A1905428  F8A7 8000		strh r8, [r7]

#56		
#57			(* Alarms_Filtr.6  := i_filtr7; *)
#58			MOVE		i_filtr7,Alarms_Filtr.6	{LNXT:21|22|-1}
(*) BOOL
A190542C  F8DF 715C		ldr r7, [pc, #+348] ; 0x10000CD5
A1905430  7838     		ldrb r0, [r7]
A1905432  F8DF 7100		ldr r7, [pc, #+256] ; 0xA0003F2A
A1905436  F8B7 8000		ldrh r8, [r7]
A190543A  F360 1886		bfi r8, r0, #6, #1
A190543E  F8A7 8000		strh r8, [r7]

#59		
#60			(* Alarms_Filtr.7  := i_filtr8; *)
#61			MOVE		i_filtr8,Alarms_Filtr.7	{LNXT:22|23|-1}
(*) BOOL
A1905442  F8DF 714C		ldr r7, [pc, #+332] ; 0x10000CD6
A1905446  7838     		ldrb r0, [r7]
A1905448  F8DF 70E8		ldr r7, [pc, #+232] ; 0xA0003F2A
A190544C  F8B7 8000		ldrh r8, [r7]
A1905450  F360 18C7		bfi r8, r0, #7, #1
A1905454  F8A7 8000		strh r8, [r7]

#62		
#63			(* Alarms_Filtr.8  := i_filtr9; *)
#64			MOVE		i_filtr9,Alarms_Filtr.8	{LNXT:23|24|-1}
(*) BOOL
A1905458  F8DF 7138		ldr r7, [pc, #+312] ; 0x10000CD7
A190545C  7838     		ldrb r0, [r7]
A190545E  F8DF 70D4		ldr r7, [pc, #+212] ; 0xA0003F2A
A1905462  F8B7 8000		ldrh r8, [r7]
A1905466  F360 2808		bfi r8, r0, #8, #1
A190546A  F8A7 8000		strh r8, [r7]

#65		
#66			(* Alarms_Filtr.9 := i_filtr10; *)
#67			MOVE		i_filtr10,Alarms_Filtr.9	{LNXT:24|25|-1}
(*) BOOL
A190546E  F8DF 7128		ldr r7, [pc, #+296] ; 0x10000CD8
A1905472  7838     		ldrb r0, [r7]
A1905474  F8DF 70BC		ldr r7, [pc, #+188] ; 0xA0003F2A
A1905478  F8B7 8000		ldrh r8, [r7]
A190547C  F360 2849		bfi r8, r0, #9, #1
A1905480  F8A7 8000		strh r8, [r7]

#68		
#69			(* Alarms_Filtr.10 := i_filtr11; *)
#70			MOVE		i_filtr11,Alarms_Filtr.10	{LNXT:25|26|-1}
(*) BOOL
A1905484  F8DF 7114		ldr r7, [pc, #+276] ; 0x10000CD9
A1905488  7838     		ldrb r0, [r7]
A190548A  F8DF 70A8		ldr r7, [pc, #+168] ; 0xA0003F2A
A190548E  F8B7 8000		ldrh r8, [r7]
A1905492  F360 288A		bfi r8, r0, #10, #1
A1905496  F8A7 8000		strh r8, [r7]

#71		
#72			(* Alarms_Filtr.11 := i_filtr12; *)
#73			MOVE		i_filtr12,Alarms_Filtr.11	{LNXT:26|27|-1}
(*) BOOL
A190549A  F8DF 7104		ldr r7, [pc, #+260] ; 0x10000CDA
A190549E  7838     		ldrb r0, [r7]
A19054A0  F8DF 7090		ldr r7, [pc, #+144] ; 0xA0003F2A
A19054A4  F8B7 8000		ldrh r8, [r7]
A19054A8  F360 28CB		bfi r8, r0, #11, #1
A19054AC  F8A7 8000		strh r8, [r7]

#74		
#75			(* Alarms_Filtr.12 :=i_rnpp; *)
#76			MOVE		i_rnpp,Alarms_Filtr.12	{LNXT:27|29|-1}
(*) BOOL
A19054B0  F8DF 70AC		ldr r7, [pc, #+172] ; 0x10000CCA
A19054B4  7838     		ldrb r0, [r7]
A19054B6  F8DF 707C		ldr r7, [pc, #+124] ; 0xA0003F2A
A19054BA  F8B7 8000		ldrh r8, [r7]
A19054BE  F360 380C		bfi r8, r0, #12, #1
A19054C2  F8A7 8000		strh r8, [r7]

#77		
#78		
#79			(* IF i_abc_Tank1_lvl <0 or i_abc_Tank1_lvl > 33000 *)
#80			LD		i_abc_Tank1_lvl	{LNXT:29|-1|-1}
(*) UNDEF
A19054C6  F8DF 7074		ldr r7, [pc, #+116] ; 0xA1A00014
A19054CA  F9B7 0000		ldrsh r0, [r7]

#81			GT		33000	{LNXT:29|-1|-1}
(*) INT
A19054CE  F8DF 708C		ldr r7, [pc, #+140] ; 0x80E8
A19054D2  463F     		mov r7, r7
A19054D4  42B8     		cmp r0, r7
A19054D6  BFD8 2000		lemov r0, #0
A19054DA  BFC8 2001		gtmov r0, #1

#82			OR(		i_abc_Tank1_lvl	{LNXT:29|-1|-1}
(*) BOOL
A19054DE  B082     		sub sp, sp, #8
A19054E0  F8CD 0000		str r0, [sp]
A19054E4  F8DF 7054		ldr r7, [pc, #+84] ; 0xA1A00014
A19054E8  F9B7 0000		ldrsh r0, [r7]

#83			LT		0	{LNXT:29|-1|-1}
(*) INT
A19054EC  2800     		cmp r0, #0
A19054EE  BFA8 2000		gemov r0, #0
A19054F2  BFB8 2001		ltmov r0, #1

#84			)	{LNXT:29|-1|-1}
(*) BOOL
A19054F6  4607     		mov r7, r0
A19054F8  F8DD 0000		ldr r0, [sp]
A19054FC  B002     		add sp, sp, #8
A19054FE  4338     		orr r0, r0, r7

#85			JMPCN	$label0	{LNXT:29|30|32}
(-) BOOL
A1905500  2800     		cmp r0, #0
A1905502  D00B     		beq #22 ; 0xA190551C


#86		
#87			(* THEN *)
#88		
#89				(* Alarms_Tank.12 := true; *)
#90				MOVE		true,Alarms_Tank.12	{LNXT:30|1|-1}
(*) BOOL
A1905506  2001     		mov r0, #1 ; 1
A1905508  F8DF 7024		ldr r7, [pc, #+36] ; 0xA0003F0A
A190550C  F8B7 8000		ldrh r8, [r7]
A1905510  F360 380C		bfi r8, r0, #12, #1
A1905514  F8A7 8000		strh r8, [r7]

#91				JMP		$label1	{LNXT:29|30|32}
(-) WORD
A1905518  E009     		b #18 ; 0xA190552E


#92		$label0:
#93		
#94			(* ELSE *)
#95		
#96				(* Alarms_Tank.12 := False; *)
#97				MOVE		False,Alarms_Tank.12	{LNXT:32|1|-1}
(*) WORD
A190551C  2000     		mov r0, #0 ; 0
A190551E  F8DF 7010		ldr r7, [pc, #+16] ; 0xA0003F0A
A1905522  F8B7 8000		ldrh r8, [r7]
A1905526  F360 380C		bfi r8, r0, #12, #1
A190552A  F8A7 8000		strh r8, [r7]

A190552E  E039     		b #114

A1905530  FFFFFFFF		; 0xA0003F0A
A1905534  FFFFFFFF		; 0xA0003F2A
A1905538  A1A0000E		; 0xA1A0000E
A190553C  A1A00014		; 0xA1A00014
A1905540  A1A0003C		; 0xA1A0003C
A1905544  A1A0003D		; 0xA1A0003D
A1905548  A1A0003E		; 0xA1A0003E
A190554C  A1A0003F		; 0xA1A0003F
A1905550  A1A00040		; 0xA1A00040
A1905554  A1A00041		; 0xA1A00041
A1905558  A1A00042		; 0xA1A00042
A190555C  000080E8		; 0x000080E8
A1905560  FFFFFFFF		; 0x10000CCA
A1905564  FFFFFFFF		; 0x10000CCB
A1905568  FFFFFFFF		; 0x10000CCC
A190556C  FFFFFFFF		; 0x10000CCD
A1905570  FFFFFFFF		; 0x10000CCE
A1905574  FFFFFFFF		; 0x10000CCF
A1905578  FFFFFFFF		; 0x10000CD0
A190557C  FFFFFFFF		; 0x10000CD1
A1905580  FFFFFFFF		; 0x10000CD2
A1905584  FFFFFFFF		; 0x10000CD3
A1905588  FFFFFFFF		; 0x10000CD4
A190558C  FFFFFFFF		; 0x10000CD5
A1905590  FFFFFFFF		; 0x10000CD6
A1905594  FFFFFFFF		; 0x10000CD7
A1905598  FFFFFFFF		; 0x10000CD8
A190559C  FFFFFFFF		; 0x10000CD9
A19055A0  FFFFFFFF		; 0x10000CDA

END_PROGRAM
**************************************************
	List program: pr_auto_ns
**************************************************

PROGRAM pr_auto_ns

        VAR
i_time_hours : INT;
	END_VAR

END_PROGRAM

#0		{SRC:pr_auto_ns}
#1		(*$WAITSWITCH$*)
#2		
#3			(* i_time_hours := sysClock.hours; *)
#4			MOVE		sysClock.hours,i_time_hours	{LNXT:1|3|-1}
(*) UDINT
A19055A4  F8DF 7084		ldr r7, [pc, #+132] ; 0x10000474
A19055A8  7838     		ldrb r0, [r7]
A19055AA  F8DF 7074		ldr r7, [pc, #+116] ; 0xA1A00044
A19055AE  8038     		strh r0, [r7]

#5		
#6		
#7			(* IF i_time_hours >= iDay_begin and i_time_hours<=iDay_end *)
#8			LD		i_time_hours	{LNXT:3|-1|-1}
(*) UNDEF
A19055B0  F8DF 706C		ldr r7, [pc, #+108] ; 0xA1A00044
A19055B4  F9B7 0000		ldrsh r0, [r7]

#9			LE		iDay_end	{LNXT:3|-1|-1}
(*) INT
A19055B8  F8DF 7068		ldr r7, [pc, #+104] ; 0xA1A00046
A19055BC  F9B7 7000		ldrsh r7, [r7]
A19055C0  42B8     		cmp r0, r7
A19055C2  BFC8 2000		gtmov r0, #0
A19055C6  BFD8 2001		lemov r0, #1

#10			AND(		i_time_hours	{LNXT:3|-1|-1}
(*) BOOL
A19055CA  B082     		sub sp, sp, #8
A19055CC  F8CD 0000		str r0, [sp]
A19055D0  F8DF 704C		ldr r7, [pc, #+76] ; 0xA1A00044
A19055D4  F9B7 0000		ldrsh r0, [r7]

#11			GE		iDay_begin	{LNXT:3|-1|-1}
(*) INT
A19055D8  F8DF 704C		ldr r7, [pc, #+76] ; 0xA1A00048
A19055DC  F9B7 7000		ldrsh r7, [r7]
A19055E0  42B8     		cmp r0, r7
A19055E2  BFB8 2000		ltmov r0, #0
A19055E6  BFA8 2001		gemov r0, #1

#12			)	{LNXT:3|-1|-1}
(*) BOOL
A19055EA  4607     		mov r7, r0
A19055EC  F8DD 0000		ldr r0, [sp]
A19055F0  B002     		add sp, sp, #8
A19055F2  4038     		and r0, r0, r7

#13			JMPCN	$label0	{LNXT:3|4|6}
(-) BOOL
A19055F4  2800     		cmp r0, #0
A19055F6  D006     		beq #12 ; 0xA1905606


#14		
#15			(* THEN *)
#16		
#17				(* b_auto_d_n := TRUE; *)
#18				MOVE		TRUE,b_auto_d_n	{LNXT:4|1|-1}
(*) BOOL
A19055FA  2001     		mov r0, #1 ; 1
A19055FC  F8DF 701C		ldr r7, [pc, #+28] ; 0xA0003F20
A1905600  8038     		strh r0, [r7]

#19				JMP		$label1	{LNXT:3|4|6}
(-) INT
A1905602  E004     		b #8 ; 0xA190560E


#20		$label0:
#21		
#22			(* ELSE *)
#23		
#24				(* b_auto_d_n := FALSE; *)
#25				MOVE		FALSE,b_auto_d_n	{LNXT:6|1|-1}
(*) INT
A1905606  2000     		mov r0, #0 ; 0
A1905608  F8DF 7010		ldr r7, [pc, #+16] ; 0xA0003F20
A190560C  8038     		strh r0, [r7]

A190560E  E8BD 0FF0		ldmia sp!, { r4, r5, r6, r7, r8, r9, r10, r11 }
A1905612  F8DD E000		ldr lr, [sp]
A1905616  B002     		add sp, sp, #8

A1905618  4770     		bx lr

A190561C  FFFFFFFF		; 0xA0003F20
A1905620  A1A00044		; 0xA1A00044
A1905624  A1A00046		; 0xA1A00046
A1905628  A1A00048		; 0xA1A00048
A190562C  FFFFFFFF		; 0x10000474

END_PROGRAM


**************************************************
	Target variable image generation
**************************************************


*** INPUT:
A1905630  B082     		sub sp, sp, #8
A1905632  F8CD E000		str lr, [sp]
A1905636  E92D 0FF0		stmdb sp!, { r4, r5, r6, r7, r8, r9, r10, r11 }

A190563A  F8DF 712C		ldr r7, [pc, #+300] ; 0x10000442
A190563E  8838     		ldrh r0, [r7]
A1905640  F8DF 70C8		ldr r7, [pc, #+200] ; 0xA1A00014
A1905644  8038     		strh r0, [r7]

A1905646  F8DF 7124		ldr r7, [pc, #+292] ; 0x10000444
A190564A  8838     		ldrh r0, [r7]
A190564C  F8DF 70C0		ldr r7, [pc, #+192] ; 0xA1A0001A
A1905650  8038     		strh r0, [r7]

A1905652  F8DF 711C		ldr r7, [pc, #+284] ; 0x10000446
A1905656  8838     		ldrh r0, [r7]
A1905658  F8DF 70B8		ldr r7, [pc, #+184] ; 0xA1A00020
A190565C  8038     		strh r0, [r7]

A190565E  F8DF 7114		ldr r7, [pc, #+276] ; 0x10000448
A1905662  8838     		ldrh r0, [r7]
A1905664  F8DF 70B0		ldr r7, [pc, #+176] ; 0xA1A00026
A1905668  8038     		strh r0, [r7]

A190566A  F8DF 710C		ldr r7, [pc, #+268] ; 0x1000044A
A190566E  8838     		ldrh r0, [r7]
A1905670  F8DF 70A8		ldr r7, [pc, #+168] ; 0xA1A0002C
A1905674  8038     		strh r0, [r7]

A1905676  F8DF 7104		ldr r7, [pc, #+260] ; 0x1000044C
A190567A  8838     		ldrh r0, [r7]
A190567C  F8DF 70A0		ldr r7, [pc, #+160] ; 0xA1A00032
A1905680  8038     		strh r0, [r7]

A1905682  F8DF 70FC		ldr r7, [pc, #+252] ; 0x1000044E
A1905686  8838     		ldrh r0, [r7]
A1905688  F8DF 7098		ldr r7, [pc, #+152] ; 0xA1A00038
A190568C  8038     		strh r0, [r7]

A190568E  F8DF 70F4		ldr r7, [pc, #+244] ; 0x10000450
A1905692  8838     		ldrh r0, [r7]
A1905694  F8DF 7090		ldr r7, [pc, #+144] ; 0xA1A0003A
A1905698  8038     		strh r0, [r7]

A190569A  F8DF 70AC		ldr r7, [pc, #+172] ; 0x10000420
A190569E  7838     		ldrb r0, [r7]
A19056A0  F8DF 7064		ldr r7, [pc, #+100] ; 0xA1A0000E
A19056A4  7038     		strb r0, [r7]

A19056A6  F8DF 70A4		ldr r7, [pc, #+164] ; 0x10000421
A19056AA  7838     		ldrb r0, [r7]
A19056AC  F8DF 707C		ldr r7, [pc, #+124] ; 0xA1A0003C
A19056B0  7038     		strb r0, [r7]

A19056B2  F8DF 709C		ldr r7, [pc, #+156] ; 0x10000422
A19056B6  7838     		ldrb r0, [r7]
A19056B8  F8DF 7074		ldr r7, [pc, #+116] ; 0xA1A0003D
A19056BC  7038     		strb r0, [r7]

A19056BE  F8DF 7094		ldr r7, [pc, #+148] ; 0x10000423
A19056C2  7838     		ldrb r0, [r7]
A19056C4  F8DF 706C		ldr r7, [pc, #+108] ; 0xA1A0003E
A19056C8  7038     		strb r0, [r7]

A19056CA  F8DF 708C		ldr r7, [pc, #+140] ; 0x10000424
A19056CE  7838     		ldrb r0, [r7]
A19056D0  F8DF 7064		ldr r7, [pc, #+100] ; 0xA1A0003F
A19056D4  7038     		strb r0, [r7]

A19056D6  F8DF 7084		ldr r7, [pc, #+132] ; 0x10000425
A19056DA  7838     		ldrb r0, [r7]
A19056DC  F8DF 705C		ldr r7, [pc, #+92] ; 0xA1A00040
A19056E0  7038     		strb r0, [r7]

A19056E2  F8DF 707C		ldr r7, [pc, #+124] ; 0x10000426
A19056E6  7838     		ldrb r0, [r7]
A19056E8  F8DF 7054		ldr r7, [pc, #+84] ; 0xA1A00041
A19056EC  7038     		strb r0, [r7]

A19056EE  F8DF 7074		ldr r7, [pc, #+116] ; 0x10000427
A19056F2  7838     		ldrb r0, [r7]
A19056F4  F8DF 704C		ldr r7, [pc, #+76] ; 0xA1A00042
A19056F8  7038     		strb r0, [r7]

A19056FA  E8BD 0FF0		ldmia sp!, { r4, r5, r6, r7, r8, r9, r10, r11 }
A19056FE  F8DD E000		ldr lr, [sp]
A1905702  B002     		add sp, sp, #8

A1905704  4770     		bx lr

A1905708  A1A0000E		; 0xA1A0000E
A190570C  A1A00014		; 0xA1A00014
A1905710  A1A0001A		; 0xA1A0001A
A1905714  A1A00020		; 0xA1A00020
A1905718  A1A00026		; 0xA1A00026
A190571C  A1A0002C		; 0xA1A0002C
A1905720  A1A00032		; 0xA1A00032
A1905724  A1A00038		; 0xA1A00038
A1905728  A1A0003A		; 0xA1A0003A
A190572C  A1A0003C		; 0xA1A0003C
A1905730  A1A0003D		; 0xA1A0003D
A1905734  A1A0003E		; 0xA1A0003E
A1905738  A1A0003F		; 0xA1A0003F
A190573C  A1A00040		; 0xA1A00040
A1905740  A1A00041		; 0xA1A00041
A1905744  A1A00042		; 0xA1A00042
A1905748  FFFFFFFF		; 0x10000420
A190574C  FFFFFFFF		; 0x10000421
A1905750  FFFFFFFF		; 0x10000422
A1905754  FFFFFFFF		; 0x10000423
A1905758  FFFFFFFF		; 0x10000424
A190575C  FFFFFFFF		; 0x10000425
A1905760  FFFFFFFF		; 0x10000426
A1905764  FFFFFFFF		; 0x10000427
A1905768  FFFFFFFF		; 0x10000442
A190576C  FFFFFFFF		; 0x10000444
A1905770  FFFFFFFF		; 0x10000446
A1905774  FFFFFFFF		; 0x10000448
A1905778  FFFFFFFF		; 0x1000044A
A190577C  FFFFFFFF		; 0x1000044C
A1905780  FFFFFFFF		; 0x1000044E
A1905784  FFFFFFFF		; 0x10000450


*** OUTPUT:
A1905788  B082     		sub sp, sp, #8
A190578A  F8CD E000		str lr, [sp]
A190578E  E92D 0FF0		stmdb sp!, { r4, r5, r6, r7, r8, r9, r10, r11 }

A1905792  E8BD 0FF0		ldmia sp!, { r4, r5, r6, r7, r8, r9, r10, r11 }
A1905796  F8DD E000		ldr lr, [sp]
A190579A  B002     		add sp, sp, #8

A190579C  4770     		bx lr



**************************************************
	Task Timed init code
**************************************************

A190579E  B082     		sub sp, sp, #8
A19057A0  F8CD E000		str lr, [sp]
A19057A4  E92D 0FF0		stmdb sp!, { r4, r5, r6, r7, r8, r9, r10, r11 }

A19057A8  E8BD 0FF0		ldmia sp!, { r4, r5, r6, r7, r8, r9, r10, r11 }
A19057AC  F8DD E000		ldr lr, [sp]
A19057B0  B002     		add sp, sp, #8

A19057B2  4770     		bx lr



**************************************************
	Global init code
**************************************************

A19057D0  B082     		sub sp, sp, #8
A19057D2  F8CD E000		str lr, [sp]
A19057D6  E92D 0FF0		stmdb sp!, { r4, r5, r6, r7, r8, r9, r10, r11 }

A19057DA  E8BD 0FF0		ldmia sp!, { r4, r5, r6, r7, r8, r9, r10, r11 }
A19057DE  F8DD E000		ldr lr, [sp]
A19057E2  B002     		add sp, sp, #8

A19057E4  4770     		bx lr



**************************************************
	Global RETAIN init code
**************************************************

A19057E6  B082     		sub sp, sp, #8
A19057E8  F8CD E000		str lr, [sp]
A19057EC  E92D 0FF0		stmdb sp!, { r4, r5, r6, r7, r8, r9, r10, r11 }

A19057F0  E8BD 0FF0		ldmia sp!, { r4, r5, r6, r7, r8, r9, r10, r11 }
A19057F4  F8DD E000		ldr lr, [sp]
A19057F8  B002     		add sp, sp, #8

A19057FA  4770     		bx lr



********************************************
MEMORY MAP
********************************************

Code area type:          		       main code
Start code area:          		00000000A1900000h
End code area:            		00000000A1905D58h
Code size:                		00005D58h

Start local data area:    		00000000A1A00000h
End local data area:      		00000000A1A0004Ah
Local data size:          		0000004Ah

Start retentive data area:		0000000000000000h
End retentive data area:  		0000000000000000h
Retentive data size:      		00000000h

Start bit data area:      		0000000000000000h
End bit data area:        		0000000000000000h
Bit data size:            		00000000h



********************************************
CODE ID:                                113FB6D8
DEBUG MEMO ID:                          A190B976
FULL MEMO ID:                           0000984E
********************************************
